; Function Attrs: nounwind uwtable
define ptr @l_Lean_Meta_Grind_Arith_Cutsat_DvdSolution_ge(ptr noundef readonly captures(none) %0, ptr noundef %1) local_unnamed_addr #1 {
  %3 = getelementptr inbounds nuw i8, ptr %0, i64 8
  %4 = getelementptr inbounds nuw i8, ptr %0, i64 16
  %5 = load ptr, ptr %4, align 8, !tbaa !11
  %6 = ptrtoint ptr %1 to i64
  %7 = and i64 %6, 1
  %.not.i20 = icmp eq i64 %7, 0
  br i1 %.not.i20, label %.critedge.i, label %8, !prof !4

8:                                                ; preds = %2
  %9 = ptrtoint ptr %5 to i64
  %10 = and i64 %9, 1
  %.not7.i = icmp eq i64 %10, 0
  br i1 %.not7.i, label %.critedge.i, label %11, !prof !4

11:                                               ; preds = %8
  %12 = shl i64 %6, 31
  %13 = ashr i64 %12, 32
  %14 = shl i64 %9, 31
  %15 = ashr i64 %14, 32
  %16 = sub nsw i64 %13, %15
  %17 = add nsw i64 %16, 2147483648
  %18 = icmp ult i64 %17, 4294967296
  br i1 %18, label %19, label %24, !prof !5

19:                                               ; preds = %11
  %20 = shl nsw i64 %16, 1
  %21 = and i64 %20, 8589934590
  %22 = or disjoint i64 %21, 1
  %23 = inttoptr i64 %22 to ptr
  br label %lean_int_sub.exit

24:                                               ; preds = %11
  %25 = tail call ptr @lean_big_int64_to_int(i64 noundef range(i64 -4611686016279904256, 4611686018427387905) %16) #6
  br label %lean_int_sub.exit

.critedge.i:                                      ; preds = %8, %2
  %26 = tail call ptr @lean_int_big_sub(ptr noundef %1, ptr noundef %5) #6
  br label %lean_int_sub.exit

lean_int_sub.exit:                                ; preds = %19, %24, %.critedge.i
  %.0.i = phi ptr [ %26, %.critedge.i ], [ %23, %19 ], [ %25, %24 ]
  %27 = load ptr, ptr %3, align 8, !tbaa !11
  %28 = tail call ptr @l_Int_Linear_cdiv(ptr noundef %.0.i, ptr noundef %27) #6
  %29 = ptrtoint ptr %.0.i to i64
  %30 = and i64 %29, 1
  %.not = icmp eq i64 %30, 0
  br i1 %.not, label %31, label %lean_dec.exit15

31:                                               ; preds = %lean_int_sub.exit
  %32 = load i32, ptr %.0.i, align 4, !tbaa !6
  %33 = icmp sgt i32 %32, 1
  br i1 %33, label %34, label %36, !prof !5

34:                                               ; preds = %31
  %35 = add nsw i32 %32, -1
  store i32 %35, ptr %.0.i, align 4, !tbaa !6
  br label %lean_dec.exit15

36:                                               ; preds = %31
  %.not.i = icmp eq i32 %32, 0
  br i1 %.not.i, label %lean_dec.exit15, label %37

37:                                               ; preds = %36
  tail call void @lean_dec_ref_cold(ptr noundef nonnull %.0.i) #6
  br label %lean_dec.exit15

lean_dec.exit15:                                  ; preds = %37, %36, %34, %lean_int_sub.exit
  %38 = ptrtoint ptr %28 to i64
  %39 = and i64 %38, 1
  %.not.i21 = icmp eq i64 %39, 0
  br i1 %.not.i21, label %59, label %40, !prof !4

40:                                               ; preds = %lean_dec.exit15
  %41 = ptrtoint ptr %27 to i64
  %42 = and i64 %41, 1
  %.not7.i22 = icmp eq i64 %42, 0
  br i1 %.not7.i22, label %lean_int_mul.exit.thread31, label %44, !prof !4

lean_int_mul.exit.thread31:                       ; preds = %40
  %43 = tail call ptr @lean_int_big_mul(ptr noundef %28, ptr noundef %27) #6
  br label %lean_dec.exit14

44:                                               ; preds = %40
  %45 = shl i64 %38, 31
  %46 = ashr i64 %45, 32
  %47 = shl i64 %41, 31
  %48 = ashr i64 %47, 32
  %49 = mul nsw i64 %46, %48
  %50 = add nsw i64 %49, 2147483648
  %51 = icmp ult i64 %50, 4294967296
  br i1 %51, label %52, label %57, !prof !5

52:                                               ; preds = %44
  %53 = shl nsw i64 %49, 1
  %54 = and i64 %53, 8589934590
  %55 = or disjoint i64 %54, 1
  %56 = inttoptr i64 %55 to ptr
  br label %lean_dec.exit14

57:                                               ; preds = %44
  %58 = tail call ptr @lean_big_int64_to_int(i64 noundef range(i64 -4611686016279904256, 4611686018427387905) %49) #6
  br label %lean_dec.exit14

59:                                               ; preds = %lean_dec.exit15
  %60 = tail call ptr @lean_int_big_mul(ptr noundef %28, ptr noundef %27) #6
  %61 = load i32, ptr %28, align 4, !tbaa !6
  %62 = icmp sgt i32 %61, 1
  br i1 %62, label %63, label %65, !prof !5

63:                                               ; preds = %59
  %64 = add nsw i32 %61, -1
  store i32 %64, ptr %28, align 4, !tbaa !6
  br label %lean_dec.exit14

65:                                               ; preds = %59
  %.not.i16 = icmp eq i32 %61, 0
  br i1 %.not.i16, label %lean_dec.exit14, label %66

66:                                               ; preds = %65
  tail call void @lean_dec_ref_cold(ptr noundef nonnull %28) #6
  br label %lean_dec.exit14

lean_dec.exit14:                                  ; preds = %57, %52, %66, %65, %63, %lean_int_mul.exit.thread31
  %.0.i2330 = phi ptr [ %43, %lean_int_mul.exit.thread31 ], [ %60, %63 ], [ %60, %65 ], [ %60, %66 ], [ %58, %57 ], [ %56, %52 ]
  %67 = ptrtoint ptr %.0.i2330 to i64
  %68 = and i64 %67, 1
  %.not.i25 = icmp eq i64 %68, 0
  br i1 %.not.i25, label %88, label %69, !prof !4

69:                                               ; preds = %lean_dec.exit14
  %70 = ptrtoint ptr %5 to i64
  %71 = and i64 %70, 1
  %.not7.i26 = icmp eq i64 %71, 0
  br i1 %.not7.i26, label %lean_int_add.exit.thread34, label %73, !prof !4

lean_int_add.exit.thread34:                       ; preds = %69
  %72 = tail call ptr @lean_int_big_add(ptr noundef %.0.i2330, ptr noundef %5) #6
  br label %lean_dec.exit

73:                                               ; preds = %69
  %74 = shl i64 %67, 31
  %75 = ashr i64 %74, 32
  %76 = shl i64 %70, 31
  %77 = ashr i64 %76, 32
  %78 = add nsw i64 %75, %77
  %79 = add nsw i64 %78, 2147483648
  %80 = icmp ult i64 %79, 4294967296
  br i1 %80, label %81, label %86, !prof !5

81:                                               ; preds = %73
  %82 = shl nsw i64 %78, 1
  %83 = and i64 %82, 8589934590
  %84 = or disjoint i64 %83, 1
  %85 = inttoptr i64 %84 to ptr
  br label %lean_dec.exit

86:                                               ; preds = %73
  %87 = tail call ptr @lean_big_int64_to_int(i64 noundef range(i64 -4611686016279904256, 4611686018427387905) %78) #6
  br label %lean_dec.exit

88:                                               ; preds = %lean_dec.exit14
  %89 = tail call ptr @lean_int_big_add(ptr noundef %.0.i2330, ptr noundef %5) #6
  %90 = load i32, ptr %.0.i2330, align 4, !tbaa !6
  %91 = icmp sgt i32 %90, 1
  br i1 %91, label %92, label %94, !prof !5

92:                                               ; preds = %88
  %93 = add nsw i32 %90, -1
  store i32 %93, ptr %.0.i2330, align 4, !tbaa !6
  br label %lean_dec.exit

94:                                               ; preds = %88
  %.not.i18 = icmp eq i32 %90, 0
  br i1 %.not.i18, label %lean_dec.exit, label %95

95:                                               ; preds = %94
  tail call void @lean_dec_ref_cold(ptr noundef nonnull %.0.i2330) #6
  br label %lean_dec.exit

lean_dec.exit:                                    ; preds = %86, %81, %95, %94, %92, %lean_int_add.exit.thread34
  %.0.i2733 = phi ptr [ %72, %lean_int_add.exit.thread34 ], [ %89, %92 ], [ %89, %94 ], [ %89, %95 ], [ %87, %86 ], [ %85, %81 ]
  ret ptr %.0.i2733
}